; ModuleID = 'source-C-CXX/44/1616.cpp'
source_filename = "source-C-CXX/44/1616.cpp"
target datalayout = "e-m:e-p270:32:32-p271:32:32-p272:64:64-i64:64-f80:128-n8:16:32:64-S128"
target triple = "x86_64-pc-linux-gnu"

%"class.std::ios_base::Init" = type { i8 }
%"class.std::basic_istream" = type { i32 (...)**, i64, %"class.std::basic_ios" }
%"class.std::basic_ios" = type { %"class.std::ios_base", %"class.std::basic_ostream"*, i8, i8, %"class.std::basic_streambuf"*, %"class.std::ctype"*, %"class.std::num_put"*, %"class.std::num_get"* }
%"class.std::ios_base" = type { i32 (...)**, i64, i64, i32, i32, i32, %"struct.std::ios_base::_Callback_list"*, %"struct.std::ios_base::_Words", [8 x %"struct.std::ios_base::_Words"], i32, %"struct.std::ios_base::_Words"*, %"class.std::locale" }
%"struct.std::ios_base::_Callback_list" = type { %"struct.std::ios_base::_Callback_list"*, void (i32, %"class.std::ios_base"*, i32)*, i32, i32 }
%"struct.std::ios_base::_Words" = type { i8*, i64 }
%"class.std::locale" = type { %"class.std::locale::_Impl"* }
%"class.std::locale::_Impl" = type { i32, %"class.std::locale::facet"**, i64, %"class.std::locale::facet"**, i8** }
%"class.std::locale::facet" = type <{ i32 (...)**, i32, [4 x i8] }>
%"class.std::basic_ostream" = type { i32 (...)**, %"class.std::basic_ios" }
%"class.std::basic_streambuf" = type { i32 (...)**, i8*, i8*, i8*, i8*, i8*, i8*, %"class.std::locale" }
%"class.std::ctype" = type <{ %"class.std::locale::facet.base", [4 x i8], %struct.__locale_struct*, i8, [7 x i8], i32*, i32*, i16*, i8, [256 x i8], [256 x i8], i8, [6 x i8] }>
%"class.std::locale::facet.base" = type <{ i32 (...)**, i32 }>
%struct.__locale_struct = type { [13 x %struct.__locale_data*], i16*, i32*, i32*, [13 x i8*] }
%struct.__locale_data = type opaque
%"class.std::num_put" = type { %"class.std::locale::facet.base", [4 x i8] }
%"class.std::num_get" = type { %"class.std::locale::facet.base", [4 x i8] }

@_ZStL8__ioinit = internal global %"class.std::ios_base::Init" zeroinitializer, align 1
@__dso_handle = external hidden global i8
@_ZSt3cin = external global %"class.std::basic_istream", align 8
@_ZSt4cout = external global %"class.std::basic_ostream", align 8
@.str = private unnamed_addr constant [3 x i8] c"no\00", align 1
@llvm.global_ctors = appending global [1 x { i32, void ()*, i8* }] [{ i32, void ()*, i8* } { i32 65535, void ()* @_GLOBAL__sub_I_1616.cpp, i8* null }]

declare void @_ZNSt8ios_base4InitC1Ev(%"class.std::ios_base::Init"* nonnull align 1 dereferenceable(1)) unnamed_addr #0

; Function Attrs: nounwind
declare void @_ZNSt8ios_base4InitD1Ev(%"class.std::ios_base::Init"* nonnull align 1 dereferenceable(1)) unnamed_addr #1

; Function Attrs: nofree nounwind
declare i32 @__cxa_atexit(void (i8*)*, i8*, i8*) local_unnamed_addr #2

; Function Attrs: mustprogress norecurse sspstrong uwtable
define dso_local i32 @main() local_unnamed_addr #3 {
  %1 = alloca [50 x i8], align 16
  %2 = alloca [50 x i8], align 16
  %3 = getelementptr inbounds [50 x i8], [50 x i8]* %1, i64 0, i64 0
  call void @llvm.lifetime.start.p0i8(i64 50, i8* nonnull %3) #8
  %4 = getelementptr inbounds [50 x i8], [50 x i8]* %2, i64 0, i64 0
  call void @llvm.lifetime.start.p0i8(i64 50, i8* nonnull %4) #8
  call void @_ZSt17__istream_extractRSiPcl(%"class.std::basic_istream"* nonnull align 8 dereferenceable(16) @_ZSt3cin, i8* nonnull %3, i64 50)
  call void @_ZSt17__istream_extractRSiPcl(%"class.std::basic_istream"* nonnull align 8 dereferenceable(16) @_ZSt3cin, i8* nonnull %4, i64 50)
  %5 = load i8, i8* %3, align 16
  %6 = load i8, i8* %4, align 16, !tbaa !5
  %7 = icmp eq i8 %6, 0
  br i1 %7, label %68, label %8

8:                                                ; preds = %0, %61
  %9 = phi i8 [ %66, %61 ], [ %6, %0 ]
  %10 = phi i32 [ %63, %61 ], [ 0, %0 ]
  %11 = sext i32 %10 to i64
  %12 = icmp eq i8 %9, %5
  br i1 %12, label %13, label %61

13:                                               ; preds = %8
  %14 = call i64 @strlen(i8* noundef nonnull %3) #9
  %15 = add i64 %14, -1
  br label %16

16:                                               ; preds = %13, %51
  %17 = phi i64 [ %11, %13 ], [ %53, %51 ]
  %18 = phi i64 [ 0, %13 ], [ %52, %51 ]
  %19 = icmp eq i64 %15, %18
  br i1 %19, label %20, label %51

20:                                               ; preds = %16
  %21 = call nonnull align 8 dereferenceable(8) %"class.std::basic_ostream"* @_ZNSo9_M_insertImEERSoT_(%"class.std::basic_ostream"* nonnull align 8 dereferenceable(8) @_ZSt4cout, i64 %11)
  %22 = bitcast %"class.std::basic_ostream"* %21 to i8**
  %23 = load i8*, i8** %22, align 8, !tbaa !8
  %24 = getelementptr i8, i8* %23, i64 -24
  %25 = bitcast i8* %24 to i64*
  %26 = load i64, i64* %25, align 8
  %27 = bitcast %"class.std::basic_ostream"* %21 to i8*
  %28 = add nsw i64 %26, 240
  %29 = getelementptr inbounds i8, i8* %27, i64 %28
  %30 = bitcast i8* %29 to %"class.std::ctype"**
  %31 = load %"class.std::ctype"*, %"class.std::ctype"** %30, align 8, !tbaa !10
  %32 = icmp eq %"class.std::ctype"* %31, null
  br i1 %32, label %33, label %34

33:                                               ; preds = %20
  call void @_ZSt16__throw_bad_castv() #10
  unreachable

34:                                               ; preds = %20
  %35 = getelementptr inbounds %"class.std::ctype", %"class.std::ctype"* %31, i64 0, i32 8
  %36 = load i8, i8* %35, align 8, !tbaa !14
  %37 = icmp eq i8 %36, 0
  br i1 %37, label %41, label %38

38:                                               ; preds = %34
  %39 = getelementptr inbounds %"class.std::ctype", %"class.std::ctype"* %31, i64 0, i32 9, i64 10
  %40 = load i8, i8* %39, align 1, !tbaa !5
  br label %47

41:                                               ; preds = %34
  call void @_ZNKSt5ctypeIcE13_M_widen_initEv(%"class.std::ctype"* nonnull align 8 dereferenceable(570) %31)
  %42 = bitcast %"class.std::ctype"* %31 to i8 (%"class.std::ctype"*, i8)***
  %43 = load i8 (%"class.std::ctype"*, i8)**, i8 (%"class.std::ctype"*, i8)*** %42, align 8, !tbaa !8
  %44 = getelementptr inbounds i8 (%"class.std::ctype"*, i8)*, i8 (%"class.std::ctype"*, i8)** %43, i64 6
  %45 = load i8 (%"class.std::ctype"*, i8)*, i8 (%"class.std::ctype"*, i8)** %44, align 8
  %46 = call signext i8 %45(%"class.std::ctype"* nonnull align 8 dereferenceable(570) %31, i8 signext 10)
  br label %47

47:                                               ; preds = %41, %38
  %48 = phi i8 [ %40, %38 ], [ %46, %41 ]
  %49 = call nonnull align 8 dereferenceable(8) %"class.std::basic_ostream"* @_ZNSo3putEc(%"class.std::basic_ostream"* nonnull align 8 dereferenceable(8) %21, i8 signext %48)
  %50 = call nonnull align 8 dereferenceable(8) %"class.std::basic_ostream"* @_ZNSo5flushEv(%"class.std::basic_ostream"* nonnull align 8 dereferenceable(8) %49)
  br label %70

51:                                               ; preds = %16
  %52 = add nuw i64 %18, 1
  %53 = add i64 %17, 1
  %54 = getelementptr inbounds [50 x i8], [50 x i8]* %2, i64 0, i64 %53
  %55 = load i8, i8* %54, align 1, !tbaa !5
  %56 = getelementptr inbounds [50 x i8], [50 x i8]* %1, i64 0, i64 %52
  %57 = load i8, i8* %56, align 1, !tbaa !5
  %58 = icmp eq i8 %55, %57
  br i1 %58, label %16, label %59, !llvm.loop !16

59:                                               ; preds = %51
  %60 = trunc i64 %53 to i32
  br label %61

61:                                               ; preds = %59, %8
  %62 = phi i32 [ %10, %8 ], [ %60, %59 ]
  %63 = add nsw i32 %62, 1
  %64 = sext i32 %63 to i64
  %65 = getelementptr inbounds [50 x i8], [50 x i8]* %2, i64 0, i64 %64
  %66 = load i8, i8* %65, align 1, !tbaa !5
  %67 = icmp eq i8 %66, 0
  br i1 %67, label %68, label %8, !llvm.loop !18

68:                                               ; preds = %61, %0
  %69 = call nonnull align 8 dereferenceable(8) %"class.std::basic_ostream"* @_ZSt16__ostream_insertIcSt11char_traitsIcEERSt13basic_ostreamIT_T0_ES6_PKS3_l(%"class.std::basic_ostream"* nonnull align 8 dereferenceable(8) @_ZSt4cout, i8* nonnull getelementptr inbounds ([3 x i8], [3 x i8]* @.str, i64 0, i64 0), i64 2)
  br label %70

70:                                               ; preds = %47, %68
  call void @llvm.lifetime.end.p0i8(i64 50, i8* nonnull %4) #8
  call void @llvm.lifetime.end.p0i8(i64 50, i8* nonnull %3) #8
  ret i32 0
}

; Function Attrs: argmemonly mustprogress nofree nosync nounwind willreturn
declare void @llvm.lifetime.start.p0i8(i64 immarg, i8* nocapture) #4

; Function Attrs: argmemonly mustprogress nofree nounwind readonly willreturn
declare i64 @strlen(i8* nocapture) local_unnamed_addr #5

; Function Attrs: argmemonly mustprogress nofree nosync nounwind willreturn
declare void @llvm.lifetime.end.p0i8(i64 immarg, i8* nocapture) #4

declare void @_ZSt17__istream_extractRSiPcl(%"class.std::basic_istream"* nonnull align 8 dereferenceable(16), i8*, i64) local_unnamed_addr #0

declare nonnull align 8 dereferenceable(8) %"class.std::basic_ostream"* @_ZNSo9_M_insertImEERSoT_(%"class.std::basic_ostream"* nonnull align 8 dereferenceable(8), i64) local_unnamed_addr #0

declare nonnull align 8 dereferenceable(8) %"class.std::basic_ostream"* @_ZNSo3putEc(%"class.std::basic_ostream"* nonnull align 8 dereferenceable(8), i8 signext) local_unnamed_addr #0

declare nonnull align 8 dereferenceable(8) %"class.std::basic_ostream"* @_ZNSo5flushEv(%"class.std::basic_ostream"* nonnull align 8 dereferenceable(8)) local_unnamed_addr #0

; Function Attrs: noreturn
declare void @_ZSt16__throw_bad_castv() local_unnamed_addr #6

declare void @_ZNKSt5ctypeIcE13_M_widen_initEv(%"class.std::ctype"* nonnull align 8 dereferenceable(570)) local_unnamed_addr #0

declare nonnull align 8 dereferenceable(8) %"class.std::basic_ostream"* @_ZSt16__ostream_insertIcSt11char_traitsIcEERSt13basic_ostreamIT_T0_ES6_PKS3_l(%"class.std::basic_ostream"* nonnull align 8 dereferenceable(8), i8*, i64) local_unnamed_addr #0

; Function Attrs: sspstrong uwtable
define internal void @_GLOBAL__sub_I_1616.cpp() #7 section ".text.startup" {
  tail call void @_ZNSt8ios_base4InitC1Ev(%"class.std::ios_base::Init"* nonnull align 1 dereferenceable(1) @_ZStL8__ioinit)
  %1 = tail call i32 @__cxa_atexit(void (i8*)* bitcast (void (%"class.std::ios_base::Init"*)* @_ZNSt8ios_base4InitD1Ev to void (i8*)*), i8* getelementptr inbounds (%"class.std::ios_base::Init", %"class.std::ios_base::Init"* @_ZStL8__ioinit, i64 0, i32 0), i8* nonnull @__dso_handle) #8
  ret void
}


!llvm.module.flags = !{!0, !1, !2, !3}
!llvm.ident = !{!4}

!0 = !{i32 1, !"wchar_size", i32 4}
!1 = !{i32 7, !"PIC Level", i32 2}
!2 = !{i32 7, !"PIE Level", i32 2}
!3 = !{i32 7, !"uwtable", i32 1}
!4 = !{!"clang version 13.0.0"}
!5 = !{!6, !6, i64 0}
!6 = !{!"omnipotent char", !7, i64 0}
!7 = !{!"Simple C++ TBAA"}
!8 = !{!9, !9, i64 0}
!9 = !{!"vtable pointer", !7, i64 0}
!10 = !{!11, !12, i64 240}
!11 = !{!"_ZTSSt9basic_iosIcSt11char_traitsIcEE", !12, i64 216, !6, i64 224, !13, i64 225, !12, i64 232, !12, i64 240, !12, i64 248, !12, i64 256}
!12 = !{!"any pointer", !6, i64 0}
!13 = !{!"bool", !6, i64 0}
!14 = !{!15, !6, i64 56}
!15 = !{!"_ZTSSt5ctypeIcE", !12, i64 16, !13, i64 24, !12, i64 32, !12, i64 40, !12, i64 48, !6, i64 56, !6, i64 57, !6, i64 313, !6, i64 569}
!16 = distinct !{!16, !17}
!17 = !{!"llvm.loop.mustprogress"}
!18 = distinct !{!18, !17}
